; Function Attrs: mustprogress nofree norecurse nosync nounwind willreturn memory(write, argmem: readwrite, inaccessiblemem: none) uwtable
define hidden void @_ZN2cv11bioinspired17ParvoRetinaFilter15clearAllBuffersEv(ptr noundef nonnull readonly align 8 captures(none) dereferenceable(304) %0) local_unnamed_addr #4 align 2 {
  %2 = getelementptr inbounds nuw i8, ptr %0, i64 16
  %3 = load i64, ptr %2, align 8, !tbaa !6
  %.not3.i.i.i.i.i = icmp eq i64 %3, 0
  br i1 %.not3.i.i.i.i.i, label %_ZN2cv11bioinspired17BasicRetinaFilter17clearOutputBufferEv.exit.i, label %.lr.ph.i.i.i.preheader.i.i

.lr.ph.i.i.i.preheader.i.i:                       ; preds = %1
  %4 = getelementptr inbounds nuw i8, ptr %0, i64 24
  %5 = load ptr, ptr %4, align 8, !tbaa !12
  %6 = shl nuw i64 %3, 2
  tail call void @llvm.memset.p0.i64(ptr align 4 %5, i8 0, i64 %6, i1 false), !tbaa !22, !alias.scope !50
  br label %_ZN2cv11bioinspired17BasicRetinaFilter17clearOutputBufferEv.exit.i

_ZN2cv11bioinspired17BasicRetinaFilter17clearOutputBufferEv.exit.i: ; preds = %.lr.ph.i.i.i.preheader.i.i, %1
  %7 = getelementptr inbounds nuw i8, ptr %0, i64 72
  %8 = load i64, ptr %7, align 8, !tbaa !6
  %.not3.i.i.i.i = icmp eq i64 %8, 0
  br i1 %.not3.i.i.i.i, label %_ZN2cv11bioinspired17BasicRetinaFilter15clearAllBuffersEv.exit, label %.lr.ph.i.i.preheader.i.i

.lr.ph.i.i.preheader.i.i:                         ; preds = %_ZN2cv11bioinspired17BasicRetinaFilter17clearOutputBufferEv.exit.i
  %9 = getelementptr inbounds nuw i8, ptr %0, i64 80
  %10 = load ptr, ptr %9, align 8, !tbaa !12
  %11 = shl nuw i64 %8, 2
  tail call void @llvm.memset.p0.i64(ptr align 4 %10, i8 0, i64 %11, i1 false), !tbaa !22, !alias.scope !53
  br label %_ZN2cv11bioinspired17BasicRetinaFilter15clearAllBuffersEv.exit

_ZN2cv11bioinspired17BasicRetinaFilter15clearAllBuffersEv.exit: ; preds = %_ZN2cv11bioinspired17BasicRetinaFilter17clearOutputBufferEv.exit.i, %.lr.ph.i.i.preheader.i.i
  %12 = getelementptr inbounds nuw i8, ptr %0, i64 176
  %13 = load i64, ptr %12, align 8, !tbaa !6
  %.not3.i.i = icmp eq i64 %13, 0
  br i1 %.not3.i.i, label %_ZNSt8valarrayIfEaSERKf.exit, label %.lr.ph.i.i.preheader

.lr.ph.i.i.preheader:                             ; preds = %_ZN2cv11bioinspired17BasicRetinaFilter15clearAllBuffersEv.exit
  %14 = getelementptr inbounds nuw i8, ptr %0, i64 184
  %15 = load ptr, ptr %14, align 8, !tbaa !12
  %16 = shl nuw i64 %13, 2
  tail call void @llvm.memset.p0.i64(ptr align 4 %15, i8 0, i64 %16, i1 false), !tbaa !22, !alias.scope !56
  br label %_ZNSt8valarrayIfEaSERKf.exit

_ZNSt8valarrayIfEaSERKf.exit:                     ; preds = %.lr.ph.i.i.preheader, %_ZN2cv11bioinspired17BasicRetinaFilter15clearAllBuffersEv.exit
  %17 = getelementptr inbounds nuw i8, ptr %0, i64 192
  %18 = load i64, ptr %17, align 8, !tbaa !6
  %.not3.i.i1 = icmp eq i64 %18, 0
  br i1 %.not3.i.i1, label %_ZNSt8valarrayIfEaSERKf.exit6, label %.lr.ph.i.i2.preheader

.lr.ph.i.i2.preheader:                            ; preds = %_ZNSt8valarrayIfEaSERKf.exit
  %19 = getelementptr inbounds nuw i8, ptr %0, i64 200
  %20 = load ptr, ptr %19, align 8, !tbaa !12
  %21 = shl nuw i64 %18, 2
  tail call void @llvm.memset.p0.i64(ptr align 4 %20, i8 0, i64 %21, i1 false), !tbaa !22, !alias.scope !59
  br label %_ZNSt8valarrayIfEaSERKf.exit6

_ZNSt8valarrayIfEaSERKf.exit6:                    ; preds = %.lr.ph.i.i2.preheader, %_ZNSt8valarrayIfEaSERKf.exit
  %22 = getelementptr inbounds nuw i8, ptr %0, i64 208
  %23 = load i64, ptr %22, align 8, !tbaa !6
  %.not3.i.i7 = icmp eq i64 %23, 0
  br i1 %.not3.i.i7, label %_ZNSt8valarrayIfEaSERKf.exit12, label %.lr.ph.i.i8.preheader

.lr.ph.i.i8.preheader:                            ; preds = %_ZNSt8valarrayIfEaSERKf.exit6
  %24 = getelementptr inbounds nuw i8, ptr %0, i64 216
  %25 = load ptr, ptr %24, align 8, !tbaa !12
  %26 = shl nuw i64 %23, 2
  tail call void @llvm.memset.p0.i64(ptr align 4 %25, i8 0, i64 %26, i1 false), !tbaa !22, !alias.scope !62
  br label %_ZNSt8valarrayIfEaSERKf.exit12

_ZNSt8valarrayIfEaSERKf.exit12:                   ; preds = %.lr.ph.i.i8.preheader, %_ZNSt8valarrayIfEaSERKf.exit6
  %27 = getelementptr inbounds nuw i8, ptr %0, i64 224
  %28 = load i64, ptr %27, align 8, !tbaa !6
  %.not3.i.i13 = icmp eq i64 %28, 0
  br i1 %.not3.i.i13, label %_ZNSt8valarrayIfEaSERKf.exit18, label %.lr.ph.i.i14.preheader

.lr.ph.i.i14.preheader:                           ; preds = %_ZNSt8valarrayIfEaSERKf.exit12
  %29 = getelementptr inbounds nuw i8, ptr %0, i64 232
  %30 = load ptr, ptr %29, align 8, !tbaa !12
  %31 = shl nuw i64 %28, 2
  tail call void @llvm.memset.p0.i64(ptr align 4 %30, i8 0, i64 %31, i1 false), !tbaa !22, !alias.scope !65
  br label %_ZNSt8valarrayIfEaSERKf.exit18

_ZNSt8valarrayIfEaSERKf.exit18:                   ; preds = %.lr.ph.i.i14.preheader, %_ZNSt8valarrayIfEaSERKf.exit12
  %32 = getelementptr inbounds nuw i8, ptr %0, i64 240
  %33 = load i64, ptr %32, align 8, !tbaa !6
  %.not3.i.i19 = icmp eq i64 %33, 0
  br i1 %.not3.i.i19, label %_ZNSt8valarrayIfEaSERKf.exit24, label %.lr.ph.i.i20.preheader

.lr.ph.i.i20.preheader:                           ; preds = %_ZNSt8valarrayIfEaSERKf.exit18
  %34 = getelementptr inbounds nuw i8, ptr %0, i64 248
  %35 = load ptr, ptr %34, align 8, !tbaa !12
  %36 = shl nuw i64 %33, 2
  tail call void @llvm.memset.p0.i64(ptr align 4 %35, i8 0, i64 %36, i1 false), !tbaa !22, !alias.scope !68
  br label %_ZNSt8valarrayIfEaSERKf.exit24

_ZNSt8valarrayIfEaSERKf.exit24:                   ; preds = %.lr.ph.i.i20.preheader, %_ZNSt8valarrayIfEaSERKf.exit18
  %37 = getelementptr inbounds nuw i8, ptr %0, i64 256
  %38 = load i64, ptr %37, align 8, !tbaa !6
  %.not3.i.i25 = icmp eq i64 %38, 0
  br i1 %.not3.i.i25, label %_ZNSt8valarrayIfEaSERKf.exit30, label %.lr.ph.i.i26.preheader

.lr.ph.i.i26.preheader:                           ; preds = %_ZNSt8valarrayIfEaSERKf.exit24
  %39 = getelementptr inbounds nuw i8, ptr %0, i64 264
  %40 = load ptr, ptr %39, align 8, !tbaa !12
  %41 = shl nuw i64 %38, 2
  tail call void @llvm.memset.p0.i64(ptr align 4 %40, i8 0, i64 %41, i1 false), !tbaa !22, !alias.scope !71
  br label %_ZNSt8valarrayIfEaSERKf.exit30

_ZNSt8valarrayIfEaSERKf.exit30:                   ; preds = %.lr.ph.i.i26.preheader, %_ZNSt8valarrayIfEaSERKf.exit24
  %42 = getelementptr inbounds nuw i8, ptr %0, i64 272
  %43 = load i64, ptr %42, align 8, !tbaa !6
  %.not3.i.i31 = icmp eq i64 %43, 0
  br i1 %.not3.i.i31, label %_ZNSt8valarrayIfEaSERKf.exit36, label %.lr.ph.i.i32.preheader

.lr.ph.i.i32.preheader:                           ; preds = %_ZNSt8valarrayIfEaSERKf.exit30
  %44 = getelementptr inbounds nuw i8, ptr %0, i64 280
  %45 = load ptr, ptr %44, align 8, !tbaa !12
  %46 = shl nuw i64 %43, 2
  tail call void @llvm.memset.p0.i64(ptr align 4 %45, i8 0, i64 %46, i1 false), !tbaa !22, !alias.scope !74
  br label %_ZNSt8valarrayIfEaSERKf.exit36

_ZNSt8valarrayIfEaSERKf.exit36:                   ; preds = %.lr.ph.i.i32.preheader, %_ZNSt8valarrayIfEaSERKf.exit30
  ret void
}